#include <math.h>
#include <stdio.h>
#include <stdlib.h>
#include <string.h>

int main()
{
int i,j,n;
scanf("%d",&n);
int a[100];
for(i=0;i<n;i++)
{
scanf("%d ",&a[i]);
}
int m;
for(i=n-1;i>0;i--)
{
for(j=0;j<i;j++)
{
m=a[j+1];
a[j+1]=a[j];
a[j]=m;
}
}
for(i=0;i<n;i++)
{
if(i==n-1)printf("%d",a[i]);
else printf("%d ",a[i]);
}
}
